; Function Attrs: nounwind uwtable
define hidden void @zflf_min_2(ptr noundef writeonly captures(none) initializes((0, 12)) %0, ptr noundef %1, ptr noundef %2) local_unnamed_addr #2 {
  %4 = getelementptr inbounds nuw i8, ptr %1, i64 8
  %5 = load i8, ptr %4, align 8, !tbaa !8
  switch i8 %5, label %.thread68 [
    i8 4, label %6
    i8 5, label %26
  ]

6:                                                ; preds = %3
  %7 = load i64, ptr %1, align 8, !tbaa !8
  %8 = getelementptr inbounds nuw i8, ptr %2, i64 8
  %9 = load i8, ptr %8, align 8, !tbaa !8
  switch i8 %9, label %.thread68 [
    i8 4, label %.thread
    i8 5, label %17
  ], !prof !84

.thread:                                          ; preds = %6
  %10 = load i64, ptr %2, align 8, !tbaa !8
  %11 = icmp slt i64 %7, %10
  %12 = select i1 %11, ptr %1, ptr %2
  %13 = load ptr, ptr %12, align 8, !tbaa !8
  %14 = getelementptr inbounds nuw i8, ptr %12, i64 8
  %15 = load i32, ptr %14, align 8, !tbaa !8
  store ptr %13, ptr %0, align 8, !tbaa !8
  %16 = getelementptr inbounds nuw i8, ptr %0, i64 8
  store i32 %15, ptr %16, align 8, !tbaa !8
  br label %68

17:                                               ; preds = %6
  %18 = sitofp i64 %7 to double
  %19 = fcmp oge double %18, 0x43E0000000000000
  %20 = fcmp olt double %18, 0xC3E0000000000000
  %or.cond.i63 = or i1 %19, %20
  br i1 %or.cond.i63, label %21, label %23

21:                                               ; preds = %17
  %22 = tail call i64 @zend_dval_to_lval_slow(double noundef %18) #21
  br label %zend_dval_to_lval.exit65

23:                                               ; preds = %17
  %24 = fptosi double %18 to i64
  br label %zend_dval_to_lval.exit65

zend_dval_to_lval.exit65:                         ; preds = %21, %23
  %.0.i64 = phi i64 [ %22, %21 ], [ %24, %23 ]
  %25 = icmp eq i64 %.0.i64, %7
  br i1 %25, label %30, label %.thread68

26:                                               ; preds = %3
  %27 = load double, ptr %1, align 8, !tbaa !8
  %28 = getelementptr inbounds nuw i8, ptr %2, i64 8
  %29 = load i8, ptr %28, align 8, !tbaa !8
  switch i8 %29, label %.thread68 [
    i8 5, label %30
    i8 4, label %38
  ], !prof !84

30:                                               ; preds = %26, %zend_dval_to_lval.exit65
  %.1 = phi double [ %27, %26 ], [ %18, %zend_dval_to_lval.exit65 ]
  %31 = load double, ptr %2, align 8, !tbaa !8
  %32 = fcmp olt double %.1, %31
  %33 = select i1 %32, ptr %1, ptr %2
  %34 = load ptr, ptr %33, align 8, !tbaa !8
  %35 = getelementptr inbounds nuw i8, ptr %33, i64 8
  %36 = load i32, ptr %35, align 8, !tbaa !8
  store ptr %34, ptr %0, align 8, !tbaa !8
  %37 = getelementptr inbounds nuw i8, ptr %0, i64 8
  store i32 %36, ptr %37, align 8, !tbaa !8
  br label %68

38:                                               ; preds = %26
  %39 = load i64, ptr %2, align 8, !tbaa !8
  %40 = sitofp i64 %39 to double
  %41 = fcmp oge double %40, 0x43E0000000000000
  %42 = fcmp olt double %40, 0xC3E0000000000000
  %or.cond.i = or i1 %41, %42
  br i1 %or.cond.i, label %43, label %45

43:                                               ; preds = %38
  %44 = tail call i64 @zend_dval_to_lval_slow(double noundef %40) #21
  %.pre = load i64, ptr %2, align 8, !tbaa !8
  br label %zend_dval_to_lval.exit

45:                                               ; preds = %38
  %46 = fptosi double %40 to i64
  br label %zend_dval_to_lval.exit

zend_dval_to_lval.exit:                           ; preds = %43, %45
  %47 = phi i64 [ %.pre, %43 ], [ %39, %45 ]
  %.0.i = phi i64 [ %44, %43 ], [ %46, %45 ]
  %48 = icmp eq i64 %.0.i, %47
  br i1 %48, label %49, label %.thread68

49:                                               ; preds = %zend_dval_to_lval.exit
  %50 = sitofp i64 %47 to double
  %51 = fcmp olt double %27, %50
  %52 = select i1 %51, ptr %1, ptr %2
  %53 = load ptr, ptr %52, align 8, !tbaa !8
  %54 = getelementptr inbounds nuw i8, ptr %52, i64 8
  %55 = load i32, ptr %54, align 8, !tbaa !8
  store ptr %53, ptr %0, align 8, !tbaa !8
  %56 = getelementptr inbounds nuw i8, ptr %0, i64 8
  store i32 %55, ptr %56, align 8, !tbaa !8
  br label %68

.thread68:                                        ; preds = %26, %3, %6, %zend_dval_to_lval.exit65, %zend_dval_to_lval.exit
  %57 = tail call i32 @zend_compare(ptr noundef nonnull %1, ptr noundef %2) #21
  %58 = icmp slt i32 %57, 0
  %59 = select i1 %58, ptr %1, ptr %2
  %60 = load ptr, ptr %59, align 8, !tbaa !8
  %61 = getelementptr inbounds nuw i8, ptr %59, i64 8
  %62 = load i32, ptr %61, align 8, !tbaa !8
  store ptr %60, ptr %0, align 8, !tbaa !8
  %63 = getelementptr inbounds nuw i8, ptr %0, i64 8
  store i32 %62, ptr %63, align 8, !tbaa !8
  %64 = and i32 %62, 65280
  %.not = icmp eq i32 %64, 0
  br i1 %.not, label %68, label %65

65:                                               ; preds = %.thread68
  %66 = load i32, ptr %60, align 4, !tbaa !11
  %67 = add i32 %66, 1
  store i32 %67, ptr %60, align 4, !tbaa !11
  br label %68

68:                                               ; preds = %.thread, %.thread68, %65, %49, %30
  ret void
}